target datalayout = "e-m:e-p270:32:32-p271:32:32-p272:64:64-i64:64-i128:128-f80:128-n8:16:32:64-S128"
target triple = "x86_64-pc-linux-gnu"

%struct.WalRcvData = type { i32, i32, i32, %struct.ConditionVariable, i64, i64, i32, i64, i32, i64, i64, i64, i64, i64, [1024 x i8], [1025 x i8], i32, [64 x i8], i8, i8, i8, %struct.pg_atomic_uint64, i32 }
%struct.ConditionVariable = type { i8, %struct.proclist_head }
%struct.proclist_head = type { i32, i32 }
%struct.pg_atomic_uint64 = type { i64 }
%struct.PROC_HDR = type { ptr, ptr, ptr, ptr, i32, %struct.dlist_head, %struct.dlist_head, %struct.dlist_head, %struct.dlist_head, %struct.pg_atomic_uint32, %struct.pg_atomic_uint32, i32, i32, i32, i32 }
%struct.dlist_head = type { %struct.dlist_node }
%struct.dlist_node = type { ptr, ptr }
%struct.pg_atomic_uint32 = type { i32 }
%struct.PGPROC = type { %struct.dlist_node, ptr, ptr, i32, %struct.Latch, i32, i32, i32, i32, %struct.anon.2, i32, i32, i32, i8, i8, i8, i8, %struct.proclist_node, %struct.proclist_node, ptr, ptr, i32, i32, %struct.pg_atomic_uint64, i32, i8, i64, i32, %struct.dlist_node, [16 x %struct.dlist_head], %struct.XidCacheStatus, %struct.XidCache, i8, %struct.pg_atomic_uint32, i32, i32, i8, %struct.pg_atomic_uint32, i32, i32, i64, i64, %struct.LWLock, ptr, ptr, i8, i32, ptr, %struct.dlist_head, %struct.dlist_node }
%struct.Latch = type { i32, i32, i8, i32 }
%struct.anon.2 = type { i32, i32 }
%struct.proclist_node = type { i32, i32 }
%struct.XidCacheStatus = type { i8, i8 }
%struct.XidCache = type { [64 x i32] }
%struct.LWLock = type { i16, %struct.pg_atomic_uint32, %struct.proclist_head }

@.str.1 = private unnamed_addr constant [14 x i8] c"walreceiver.c\00", align 1
@WalRcv = external global ptr, align 8
@__func__.WalRcvForceReply = private unnamed_addr constant [17 x i8] c"WalRcvForceReply\00", align 1
@ProcGlobal = external global ptr, align 8

; Function Attrs: inlinehint nounwind uwtable
define internal i32 @tas(ptr noundef %0) #6 {
  %2 = alloca ptr, align 8
  %3 = alloca i8, align 1
  store ptr %0, ptr %2, align 8
  call void @llvm.lifetime.start.p0(i64 1, ptr %3) #16
  store i8 1, ptr %3, align 1
  %4 = load i8, ptr %3, align 1
  %5 = load ptr, ptr %2, align 8
  %6 = call i8 asm sideeffect "\09lock\09\09\09\0A\09xchgb\09$0,$1\09\0A", "=q,=*m,0,*m,~{memory},~{cc},~{dirflag},~{fpsr},~{flags}"(ptr elementtype(i8) %5, i8 %4, ptr elementtype(i8) %5) #16, !srcloc !16
  store i8 %6, ptr %3, align 1
  %7 = load i8, ptr %3, align 1
  %8 = zext i8 %7 to i32
  call void @llvm.lifetime.end.p0(i64 1, ptr %3) #16
  ret i32 %8
}

; Function Attrs: nounwind uwtable
define dso_local void @WalRcvForceReply() #0 {
  %1 = alloca i32, align 4
  call void @llvm.lifetime.start.p0(i64 4, ptr %1) #16
  %2 = load ptr, ptr @WalRcv, align 8
  %3 = getelementptr inbounds nuw %struct.WalRcvData, ptr %2, i32 0, i32 22
  store i32 1, ptr %3, align 8
  %4 = load ptr, ptr @WalRcv, align 8
  %5 = getelementptr inbounds nuw %struct.WalRcvData, ptr %4, i32 0, i32 20
  %6 = call i32 @tas(ptr noundef %5)
  %7 = icmp ne i32 %6, 0
  br i1 %7, label %8, label %12

8:                                                ; preds = %0
  %9 = load ptr, ptr @WalRcv, align 8
  %10 = getelementptr inbounds nuw %struct.WalRcvData, ptr %9, i32 0, i32 20
  %11 = call i32 @s_lock(ptr noundef %10, ptr noundef @.str.1, i32 noundef 1365, ptr noundef @__func__.WalRcvForceReply)
  br label %13

12:                                               ; preds = %0
  br label %13

13:                                               ; preds = %12, %8
  %14 = load ptr, ptr @WalRcv, align 8
  %15 = getelementptr inbounds nuw %struct.WalRcvData, ptr %14, i32 0, i32 0
  %16 = load i32, ptr %15, align 8
  store i32 %16, ptr %1, align 4
  br label %17

17:                                               ; preds = %13
  call void asm sideeffect "", "~{memory},~{dirflag},~{fpsr},~{flags}"() #16, !srcloc !25
  %18 = load ptr, ptr @WalRcv, align 8
  %19 = getelementptr inbounds nuw %struct.WalRcvData, ptr %18, i32 0, i32 20
  store i8 0, ptr %19, align 2
  br label %20

20:                                               ; preds = %17
  br label %21

21:                                               ; preds = %20
  %22 = load i32, ptr %1, align 4
  %23 = icmp ne i32 %22, -1
  br i1 %23, label %24, label %32

24:                                               ; preds = %21
  %25 = load ptr, ptr @ProcGlobal, align 8
  %26 = getelementptr inbounds nuw %struct.PROC_HDR, ptr %25, i32 0, i32 0
  %27 = load ptr, ptr %26, align 8
  %28 = load i32, ptr %1, align 4
  %29 = sext i32 %28 to i64
  %30 = getelementptr inbounds %struct.PGPROC, ptr %27, i64 %29
  %31 = getelementptr inbounds nuw %struct.PGPROC, ptr %30, i32 0, i32 4
  call void @SetLatch(ptr noundef %31)
  br label %32

32:                                               ; preds = %24, %21
  call void @llvm.lifetime.end.p0(i64 4, ptr %1) #16
  ret void
}