; Function Attrs: nounwind uwtable
define dso_local void @WalRcvForceReply() local_unnamed_addr #0 {
  %1 = load ptr, ptr @WalRcv, align 8
  %2 = getelementptr inbounds nuw i8, ptr %1, i64 2240
  store i32 1, ptr %2, align 8
  %3 = getelementptr inbounds nuw i8, ptr %1, i64 2226
  %4 = tail call i8 asm sideeffect "\09lock\09\09\09\0A\09xchgb\09$0,$1\09\0A", "=q,=*m,0,*m,~{memory},~{cc},~{dirflag},~{fpsr},~{flags}"(ptr nonnull elementtype(i8) %3, i8 1, ptr nonnull elementtype(i8) %3) #16, !srcloc !5
  %.not = icmp eq i8 %4, 0
  br i1 %.not, label %9, label %5

5:                                                ; preds = %0
  %6 = load ptr, ptr @WalRcv, align 8
  %7 = getelementptr inbounds nuw i8, ptr %6, i64 2226
  %8 = tail call i32 @s_lock(ptr noundef nonnull %7, ptr noundef nonnull @.str.1, i32 noundef 1365, ptr noundef nonnull @__func__.WalRcvForceReply) #16
  br label %9

9:                                                ; preds = %0, %5
  %10 = load ptr, ptr @WalRcv, align 8
  %11 = load i32, ptr %10, align 8
  tail call void asm sideeffect "", "~{memory},~{dirflag},~{fpsr},~{flags}"() #16, !srcloc !25
  %12 = load ptr, ptr @WalRcv, align 8
  %13 = getelementptr inbounds nuw i8, ptr %12, i64 2226
  store i8 0, ptr %13, align 2
  %.not2 = icmp eq i32 %11, -1
  br i1 %.not2, label %19, label %14

14:                                               ; preds = %9
  %15 = load ptr, ptr @ProcGlobal, align 8
  %16 = load ptr, ptr %15, align 8
  %17 = sext i32 %11 to i64
  %18 = getelementptr inbounds %struct.PGPROC, ptr %16, i64 %17, i32 4
  tail call void @SetLatch(ptr noundef nonnull %18) #16
  br label %19

19:                                               ; preds = %14, %9
  ret void
}